
/home/ck/do_sth_here/ysyx/ysyx-workbench/am-kernels/tests/am-tests/build/amtest-riscv64-nemu.elf：     文件格式 elf64-littleriscv


Disassembly of section .text:

0000000080000000 <_start>:
    80000000:	00000413          	li	s0,0
    80000004:	00009117          	auipc	sp,0x9
    80000008:	ffc10113          	addi	sp,sp,-4 # 80009000 <_end>
    8000000c:	104000ef          	jal	ra,80000110 <_trm_init>

0000000080000010 <main>:
    80000010:	f9010113          	addi	sp,sp,-112
    80000014:	04913c23          	sd	s1,88(sp)
    80000018:	00000517          	auipc	a0,0x0
    8000001c:	5e850513          	addi	a0,a0,1512 # 80000600 <_etext+0x4>
    80000020:	000f44b7          	lui	s1,0xf4
    80000024:	06813023          	sd	s0,96(sp)
    80000028:	05313423          	sd	s3,72(sp)
    8000002c:	05413023          	sd	s4,64(sp)
    80000030:	03513c23          	sd	s5,56(sp)
    80000034:	03613823          	sd	s6,48(sp)
    80000038:	03713423          	sd	s7,40(sp)
    8000003c:	06113423          	sd	ra,104(sp)
    80000040:	05213823          	sd	s2,80(sp)
    80000044:	00100413          	li	s0,1
    80000048:	574000ef          	jal	ra,800005bc <printf>
    8000004c:	00000a97          	auipc	s5,0x0
    80000050:	5c4a8a93          	addi	s5,s5,1476 # 80000610 <_etext+0x14>
    80000054:	24048493          	addi	s1,s1,576 # f4240 <_entry_offset+0xf4240>
    80000058:	00000a17          	auipc	s4,0x0
    8000005c:	5c8a0a13          	addi	s4,s4,1480 # 80000620 <_etext+0x24>
    80000060:	00100993          	li	s3,1
    80000064:	00000b97          	auipc	s7,0x0
    80000068:	5ecb8b93          	addi	s7,s7,1516 # 80000650 <_etext+0x54>
    8000006c:	00000b17          	auipc	s6,0x0
    80000070:	5d4b0b13          	addi	s6,s6,1492 # 80000640 <_etext+0x44>
    80000074:	00810593          	addi	a1,sp,8
    80000078:	00600513          	li	a0,6
    8000007c:	0e0000ef          	jal	ra,8000015c <ioe_read>
    80000080:	00812583          	lw	a1,8(sp)
    80000084:	000a8513          	mv	a0,s5
    80000088:	0004091b          	sext.w	s2,s0
    8000008c:	530000ef          	jal	ra,800005bc <printf>
    80000090:	00810593          	addi	a1,sp,8
    80000094:	00600513          	li	a0,6
    80000098:	0c4000ef          	jal	ra,8000015c <ioe_read>
    8000009c:	00813783          	ld	a5,8(sp)
    800000a0:	0297d7b3          	divu	a5,a5,s1
    800000a4:	fe87e6e3          	bltu	a5,s0,80000090 <main+0x80>
    800000a8:	00810593          	addi	a1,sp,8
    800000ac:	00500513          	li	a0,5
    800000b0:	0ac000ef          	jal	ra,8000015c <ioe_read>
    800000b4:	01c12803          	lw	a6,28(sp)
    800000b8:	01812783          	lw	a5,24(sp)
    800000bc:	01412703          	lw	a4,20(sp)
    800000c0:	01012683          	lw	a3,16(sp)
    800000c4:	00c12603          	lw	a2,12(sp)
    800000c8:	00812583          	lw	a1,8(sp)
    800000cc:	000a0513          	mv	a0,s4
    800000d0:	4ec000ef          	jal	ra,800005bc <printf>
    800000d4:	01341c63          	bne	s0,s3,800000ec <main+0xdc>
    800000d8:	00100593          	li	a1,1
    800000dc:	000b0513          	mv	a0,s6
    800000e0:	4dc000ef          	jal	ra,800005bc <printf>
    800000e4:	00140413          	addi	s0,s0,1
    800000e8:	f8dff06f          	j	80000074 <main+0x64>
    800000ec:	00090593          	mv	a1,s2
    800000f0:	000b8513          	mv	a0,s7
    800000f4:	4c8000ef          	jal	ra,800005bc <printf>
    800000f8:	00140413          	addi	s0,s0,1
    800000fc:	f79ff06f          	j	80000074 <main+0x64>

0000000080000100 <putch>:
    80000100:	00500793          	li	a5,5
    80000104:	01d79793          	slli	a5,a5,0x1d
    80000108:	3ea78c23          	sb	a0,1016(a5)
    8000010c:	00008067          	ret

0000000080000110 <_trm_init>:
    80000110:	ff010113          	addi	sp,sp,-16
    80000114:	00000517          	auipc	a0,0x0
    80000118:	55c50513          	addi	a0,a0,1372 # 80000670 <mainargs>
    8000011c:	00113423          	sd	ra,8(sp)
    80000120:	ef1ff0ef          	jal	ra,80000010 <main>
    80000124:	00050513          	mv	a0,a0
    80000128:	00100073          	ebreak
    8000012c:	0000006f          	j	8000012c <_trm_init+0x1c>

0000000080000130 <__am_timer_config>:
    80000130:	00100793          	li	a5,1
    80000134:	00f50023          	sb	a5,0(a0)
    80000138:	00f500a3          	sb	a5,1(a0)
    8000013c:	00008067          	ret

0000000080000140 <__am_input_config>:
    80000140:	00100793          	li	a5,1
    80000144:	00f50023          	sb	a5,0(a0)
    80000148:	00008067          	ret

000000008000014c <__am_uart_config>:
    8000014c:	00050023          	sb	zero,0(a0)
    80000150:	00008067          	ret

0000000080000154 <__am_net_config>:
    80000154:	00050023          	sb	zero,0(a0)
    80000158:	00008067          	ret

000000008000015c <ioe_read>:
    8000015c:	00351513          	slli	a0,a0,0x3
    80000160:	00000797          	auipc	a5,0x0
    80000164:	51878793          	addi	a5,a5,1304 # 80000678 <lut>
    80000168:	00a787b3          	add	a5,a5,a0
    8000016c:	0007b783          	ld	a5,0(a5)
    80000170:	00058513          	mv	a0,a1
    80000174:	00078067          	jr	a5

0000000080000178 <__am_timer_uptime>:
    80000178:	00500713          	li	a4,5
    8000017c:	01d71713          	slli	a4,a4,0x1d
    80000180:	04c72783          	lw	a5,76(a4)
    80000184:	04872703          	lw	a4,72(a4)
    80000188:	02079793          	slli	a5,a5,0x20
    8000018c:	02071713          	slli	a4,a4,0x20
    80000190:	02075713          	srli	a4,a4,0x20
    80000194:	00e7e7b3          	or	a5,a5,a4
    80000198:	00f53023          	sd	a5,0(a0)
    8000019c:	00008067          	ret

00000000800001a0 <__am_timer_rtc>:
    800001a0:	76c00793          	li	a5,1900
    800001a4:	00052a23          	sw	zero,20(a0)
    800001a8:	00052823          	sw	zero,16(a0)
    800001ac:	00052623          	sw	zero,12(a0)
    800001b0:	00052423          	sw	zero,8(a0)
    800001b4:	00052223          	sw	zero,4(a0)
    800001b8:	00f52023          	sw	a5,0(a0)
    800001bc:	00008067          	ret

00000000800001c0 <__am_input_keybrd>:
    800001c0:	00500793          	li	a5,5
    800001c4:	01d79793          	slli	a5,a5,0x1d
    800001c8:	0607a783          	lw	a5,96(a5)
    800001cc:	ffff86b7          	lui	a3,0xffff8
    800001d0:	fff68693          	addi	a3,a3,-1 # ffffffffffff7fff <_end+0xffffffff7ffeefff>
    800001d4:	0007879b          	sext.w	a5,a5
    800001d8:	40f7d71b          	sraiw	a4,a5,0xf
    800001dc:	00177713          	andi	a4,a4,1
    800001e0:	00d7f7b3          	and	a5,a5,a3
    800001e4:	00e50023          	sb	a4,0(a0)
    800001e8:	00f52223          	sw	a5,4(a0)
    800001ec:	00008067          	ret

00000000800001f0 <__am_gpu_config>:
    800001f0:	00000797          	auipc	a5,0x0
    800001f4:	47078793          	addi	a5,a5,1136 # 80000660 <_etext+0x64>
    800001f8:	0007a603          	lw	a2,0(a5)
    800001fc:	0047a683          	lw	a3,4(a5)
    80000200:	0087a703          	lw	a4,8(a5)
    80000204:	00c7a783          	lw	a5,12(a5)
    80000208:	00c52023          	sw	a2,0(a0)
    8000020c:	00d52223          	sw	a3,4(a0)
    80000210:	00e52423          	sw	a4,8(a0)
    80000214:	00f52623          	sw	a5,12(a0)
    80000218:	00008067          	ret

000000008000021c <__am_gpu_fbdraw>:
    8000021c:	00853e03          	ld	t3,8(a0)
    80000220:	0c0e0063          	beqz	t3,800002e0 <__am_gpu_fbdraw+0xc4>
    80000224:	01452f83          	lw	t6,20(a0)
    80000228:	ff010113          	addi	sp,sp,-16
    8000022c:	00813423          	sd	s0,8(sp)
    80000230:	00913023          	sd	s1,0(sp)
    80000234:	00052403          	lw	s0,0(a0)
    80000238:	00452783          	lw	a5,4(a0)
    8000023c:	01052f03          	lw	t5,16(a0)
    80000240:	09f05063          	blez	t6,800002c0 <__am_gpu_fbdraw+0xa4>
    80000244:	19000893          	li	a7,400
    80000248:	02f888bb          	mulw	a7,a7,a5
    8000024c:	ffff0e9b          	addiw	t4,t5,-1
    80000250:	020e9e93          	slli	t4,t4,0x20
    80000254:	0a100293          	li	t0,161
    80000258:	000f039b          	sext.w	t2,t5
    8000025c:	00000813          	li	a6,0
    80000260:	00000313          	li	t1,0
    80000264:	020ede93          	srli	t4,t4,0x20
    80000268:	004e0493          	addi	s1,t3,4
    8000026c:	01829293          	slli	t0,t0,0x18
    80000270:	05e05063          	blez	t5,800002b0 <__am_gpu_fbdraw+0x94>
    80000274:	0088873b          	addw	a4,a7,s0
    80000278:	00281793          	slli	a5,a6,0x2
    8000027c:	00271713          	slli	a4,a4,0x2
    80000280:	40f70733          	sub	a4,a4,a5
    80000284:	010e85b3          	add	a1,t4,a6
    80000288:	00259593          	slli	a1,a1,0x2
    8000028c:	41c70733          	sub	a4,a4,t3
    80000290:	00fe07b3          	add	a5,t3,a5
    80000294:	009585b3          	add	a1,a1,s1
    80000298:	00570733          	add	a4,a4,t0
    8000029c:	0007a603          	lw	a2,0(a5)
    800002a0:	00f706b3          	add	a3,a4,a5
    800002a4:	00478793          	addi	a5,a5,4
    800002a8:	00c6a023          	sw	a2,0(a3)
    800002ac:	feb798e3          	bne	a5,a1,8000029c <__am_gpu_fbdraw+0x80>
    800002b0:	0013031b          	addiw	t1,t1,1
    800002b4:	1908889b          	addiw	a7,a7,400
    800002b8:	0078083b          	addw	a6,a6,t2
    800002bc:	fa6f9ae3          	bne	t6,t1,80000270 <__am_gpu_fbdraw+0x54>
    800002c0:	01854703          	lbu	a4,24(a0)
    800002c4:	00813403          	ld	s0,8(sp)
    800002c8:	00500793          	li	a5,5
    800002cc:	01d79793          	slli	a5,a5,0x1d
    800002d0:	10e7a223          	sw	a4,260(a5)
    800002d4:	00013483          	ld	s1,0(sp)
    800002d8:	01010113          	addi	sp,sp,16
    800002dc:	00008067          	ret
    800002e0:	01854703          	lbu	a4,24(a0)
    800002e4:	00500793          	li	a5,5
    800002e8:	01d79793          	slli	a5,a5,0x1d
    800002ec:	10e7a223          	sw	a4,260(a5)
    800002f0:	00008067          	ret

00000000800002f4 <__am_gpu_status>:
    800002f4:	00100793          	li	a5,1
    800002f8:	00f50023          	sb	a5,0(a0)
    800002fc:	00008067          	ret

0000000080000300 <__am_audio_config>:
    80000300:	00050023          	sb	zero,0(a0)
    80000304:	00008067          	ret

0000000080000308 <__am_audio_ctrl>:
    80000308:	00008067          	ret

000000008000030c <__am_audio_status>:
    8000030c:	00052023          	sw	zero,0(a0)
    80000310:	00008067          	ret

0000000080000314 <__am_audio_play>:
    80000314:	00008067          	ret

0000000080000318 <__am_disk_config>:
    80000318:	00050023          	sb	zero,0(a0)
    8000031c:	00008067          	ret

0000000080000320 <__am_disk_status>:
    80000320:	00008067          	ret

0000000080000324 <__am_disk_blkio>:
    80000324:	00008067          	ret

0000000080000328 <vsprintf>:
    80000328:	0005c703          	lbu	a4,0(a1)
    8000032c:	00050e13          	mv	t3,a0
    80000330:	1e070e63          	beqz	a4,8000052c <vsprintf+0x204>
    80000334:	f9010113          	addi	sp,sp,-112
    80000338:	06813423          	sd	s0,104(sp)
    8000033c:	06913023          	sd	s1,96(sp)
    80000340:	00050813          	mv	a6,a0
    80000344:	05213c23          	sd	s2,88(sp)
    80000348:	05313823          	sd	s3,80(sp)
    8000034c:	00000893          	li	a7,0
    80000350:	00000313          	li	t1,0
    80000354:	00000693          	li	a3,0
    80000358:	00100513          	li	a0,1
    8000035c:	02500f13          	li	t5,37
    80000360:	06400393          	li	t2,100
    80000364:	00a00e93          	li	t4,10
    80000368:	02d00493          	li	s1,45
    8000036c:	03000413          	li	s0,48
    80000370:	07300293          	li	t0,115
    80000374:	06300f93          	li	t6,99
    80000378:	0280006f          	j	800003a0 <vsprintf+0x78>
    8000037c:	0018889b          	addiw	a7,a7,1
    80000380:	00e80023          	sb	a4,0(a6)
    80000384:	00078313          	mv	t1,a5
    80000388:	0017851b          	addiw	a0,a5,1
    8000038c:	00fe0833          	add	a6,t3,a5
    80000390:	011587b3          	add	a5,a1,a7
    80000394:	0007c703          	lbu	a4,0(a5)
    80000398:	00088693          	mv	a3,a7
    8000039c:	06070063          	beqz	a4,800003fc <vsprintf+0xd4>
    800003a0:	0005079b          	sext.w	a5,a0
    800003a4:	fde71ce3          	bne	a4,t5,8000037c <vsprintf+0x54>
    800003a8:	00d586b3          	add	a3,a1,a3
    800003ac:	0016c703          	lbu	a4,1(a3)
    800003b0:	00013023          	sd	zero,0(sp)
    800003b4:	00013423          	sd	zero,8(sp)
    800003b8:	00013823          	sd	zero,16(sp)
    800003bc:	00013c23          	sd	zero,24(sp)
    800003c0:	02013023          	sd	zero,32(sp)
    800003c4:	02013423          	sd	zero,40(sp)
    800003c8:	02013823          	sd	zero,48(sp)
    800003cc:	02013c23          	sd	zero,56(sp)
    800003d0:	04013023          	sd	zero,64(sp)
    800003d4:	04013423          	sd	zero,72(sp)
    800003d8:	0a770063          	beq	a4,t2,80000478 <vsprintf+0x150>
    800003dc:	04570e63          	beq	a4,t0,80000438 <vsprintf+0x110>
    800003e0:	03f70c63          	beq	a4,t6,80000418 <vsprintf+0xf0>
    800003e4:	0018889b          	addiw	a7,a7,1
    800003e8:	0018889b          	addiw	a7,a7,1
    800003ec:	011587b3          	add	a5,a1,a7
    800003f0:	0007c703          	lbu	a4,0(a5)
    800003f4:	00088693          	mv	a3,a7
    800003f8:	fa0714e3          	bnez	a4,800003a0 <vsprintf+0x78>
    800003fc:	00080023          	sb	zero,0(a6)
    80000400:	06813403          	ld	s0,104(sp)
    80000404:	06013483          	ld	s1,96(sp)
    80000408:	05813903          	ld	s2,88(sp)
    8000040c:	05013983          	ld	s3,80(sp)
    80000410:	07010113          	addi	sp,sp,112
    80000414:	00008067          	ret
    80000418:	00062703          	lw	a4,0(a2)
    8000041c:	00078313          	mv	t1,a5
    80000420:	00860613          	addi	a2,a2,8
    80000424:	00e80023          	sb	a4,0(a6)
    80000428:	0017851b          	addiw	a0,a5,1
    8000042c:	00fe0833          	add	a6,t3,a5
    80000430:	0018889b          	addiw	a7,a7,1
    80000434:	fb5ff06f          	j	800003e8 <vsprintf+0xc0>
    80000438:	00063703          	ld	a4,0(a2)
    8000043c:	00860613          	addi	a2,a2,8
    80000440:	00074683          	lbu	a3,0(a4)
    80000444:	fa0680e3          	beqz	a3,800003e4 <vsprintf+0xbc>
    80000448:	00170713          	addi	a4,a4,1
    8000044c:	00fe0533          	add	a0,t3,a5
    80000450:	fed50fa3          	sb	a3,-1(a0)
    80000454:	00074683          	lbu	a3,0(a4)
    80000458:	0007831b          	sext.w	t1,a5
    8000045c:	00170713          	addi	a4,a4,1
    80000460:	00178793          	addi	a5,a5,1
    80000464:	fe0694e3          	bnez	a3,8000044c <vsprintf+0x124>
    80000468:	006e0833          	add	a6,t3,t1
    8000046c:	0013051b          	addiw	a0,t1,1
    80000470:	0018889b          	addiw	a7,a7,1
    80000474:	f75ff06f          	j	800003e8 <vsprintf+0xc0>
    80000478:	00062683          	lw	a3,0(a2)
    8000047c:	00860613          	addi	a2,a2,8
    80000480:	00069e63          	bnez	a3,8000049c <vsprintf+0x174>
    80000484:	00880023          	sb	s0,0(a6)
    80000488:	00078313          	mv	t1,a5
    8000048c:	00fe0833          	add	a6,t3,a5
    80000490:	0017851b          	addiw	a0,a5,1
    80000494:	0018889b          	addiw	a7,a7,1
    80000498:	f51ff06f          	j	800003e8 <vsprintf+0xc0>
    8000049c:	0606cc63          	bltz	a3,80000514 <vsprintf+0x1ec>
    800004a0:	00410913          	addi	s2,sp,4
    800004a4:	00000713          	li	a4,0
    800004a8:	03d6e7bb          	remw	a5,a3,t4
    800004ac:	00070993          	mv	s3,a4
    800004b0:	00490913          	addi	s2,s2,4
    800004b4:	0017071b          	addiw	a4,a4,1
    800004b8:	03d6c6bb          	divw	a3,a3,t4
    800004bc:	fef92e23          	sw	a5,-4(s2)
    800004c0:	fe0694e3          	bnez	a3,800004a8 <vsprintf+0x180>
    800004c4:	02099913          	slli	s2,s3,0x20
    800004c8:	00271713          	slli	a4,a4,0x2
    800004cc:	02095913          	srli	s2,s2,0x20
    800004d0:	ffc70713          	addi	a4,a4,-4
    800004d4:	012e0933          	add	s2,t3,s2
    800004d8:	00080693          	mv	a3,a6
    800004dc:	00e10733          	add	a4,sp,a4
    800004e0:	00690833          	add	a6,s2,t1
    800004e4:	0100006f          	j	800004f4 <vsprintf+0x1cc>
    800004e8:	00072783          	lw	a5,0(a4)
    800004ec:	00168693          	addi	a3,a3,1
    800004f0:	ffc70713          	addi	a4,a4,-4
    800004f4:	0307879b          	addiw	a5,a5,48
    800004f8:	00f68023          	sb	a5,0(a3)
    800004fc:	fed816e3          	bne	a6,a3,800004e8 <vsprintf+0x1c0>
    80000500:	0135033b          	addw	t1,a0,s3
    80000504:	006e0833          	add	a6,t3,t1
    80000508:	0013051b          	addiw	a0,t1,1
    8000050c:	0018889b          	addiw	a7,a7,1
    80000510:	ed9ff06f          	j	800003e8 <vsprintf+0xc0>
    80000514:	00980023          	sb	s1,0(a6)
    80000518:	00078313          	mv	t1,a5
    8000051c:	40d006bb          	negw	a3,a3
    80000520:	00fe0833          	add	a6,t3,a5
    80000524:	0017851b          	addiw	a0,a5,1
    80000528:	f79ff06f          	j	800004a0 <vsprintf+0x178>
    8000052c:	00100513          	li	a0,1
    80000530:	000e0023          	sb	zero,0(t3)
    80000534:	00008067          	ret

0000000080000538 <vprintf>:
    80000538:	fd010113          	addi	sp,sp,-48
    8000053c:	fffff2b7          	lui	t0,0xfffff
    80000540:	00913c23          	sd	s1,24(sp)
    80000544:	02113423          	sd	ra,40(sp)
    80000548:	02813023          	sd	s0,32(sp)
    8000054c:	fffff7b7          	lui	a5,0xfffff
    80000550:	00510133          	add	sp,sp,t0
    80000554:	00001737          	lui	a4,0x1
    80000558:	00f70733          	add	a4,a4,a5
    8000055c:	01010793          	addi	a5,sp,16
    80000560:	00f707b3          	add	a5,a4,a5
    80000564:	00058613          	mv	a2,a1
    80000568:	00050593          	mv	a1,a0
    8000056c:	00078513          	mv	a0,a5
    80000570:	00f13423          	sd	a5,8(sp)
    80000574:	db5ff0ef          	jal	ra,80000328 <vsprintf>
    80000578:	00813783          	ld	a5,8(sp)
    8000057c:	00050493          	mv	s1,a0
    80000580:	0007c503          	lbu	a0,0(a5) # fffffffffffff000 <_end+0xffffffff7fff6000>
    80000584:	00050c63          	beqz	a0,8000059c <vprintf+0x64>
    80000588:	00078413          	mv	s0,a5
    8000058c:	00140413          	addi	s0,s0,1
    80000590:	b71ff0ef          	jal	ra,80000100 <putch>
    80000594:	00044503          	lbu	a0,0(s0)
    80000598:	fe051ae3          	bnez	a0,8000058c <vprintf+0x54>
    8000059c:	000012b7          	lui	t0,0x1
    800005a0:	00510133          	add	sp,sp,t0
    800005a4:	02813083          	ld	ra,40(sp)
    800005a8:	00048513          	mv	a0,s1
    800005ac:	02013403          	ld	s0,32(sp)
    800005b0:	01813483          	ld	s1,24(sp)
    800005b4:	03010113          	addi	sp,sp,48
    800005b8:	00008067          	ret

00000000800005bc <printf>:
    800005bc:	fa010113          	addi	sp,sp,-96
    800005c0:	02810313          	addi	t1,sp,40
    800005c4:	02b13423          	sd	a1,40(sp)
    800005c8:	00030593          	mv	a1,t1
    800005cc:	00113c23          	sd	ra,24(sp)
    800005d0:	02c13823          	sd	a2,48(sp)
    800005d4:	02d13c23          	sd	a3,56(sp)
    800005d8:	04e13023          	sd	a4,64(sp)
    800005dc:	04f13423          	sd	a5,72(sp)
    800005e0:	05013823          	sd	a6,80(sp)
    800005e4:	05113c23          	sd	a7,88(sp)
    800005e8:	00613423          	sd	t1,8(sp)
    800005ec:	f4dff0ef          	jal	ra,80000538 <vprintf>
    800005f0:	01813083          	ld	ra,24(sp)
    800005f4:	06010113          	addi	sp,sp,96
    800005f8:	00008067          	ret
